; ModuleID = 'source-C-CXX/57/166.c'
source_filename = "source-C-CXX/57/166.c"
target datalayout = "e-m:e-p270:32:32-p271:32:32-p272:64:64-i64:64-f80:128-n8:16:32:64-S128"
target triple = "x86_64-pc-linux-gnu"

%struct._IO_FILE = type { i32, i8*, i8*, i8*, i8*, i8*, i8*, i8*, i8*, i8*, i8*, i8*, %struct._IO_marker*, %struct._IO_FILE*, i32, i32, i64, i16, i8, [1 x i8], i8*, i64, %struct._IO_codecvt*, %struct._IO_wide_data*, %struct._IO_FILE*, i8*, i64, i32, [20 x i8] }
%struct._IO_marker = type opaque
%struct._IO_codecvt = type opaque
%struct._IO_wide_data = type opaque

@stdin = external local_unnamed_addr global %struct._IO_FILE*, align 8
@str = private unnamed_addr constant [2 x i8] c"1\00", align 1
@str.2 = private unnamed_addr constant [2 x i8] c"0\00", align 1

; Function Attrs: nounwind sspstrong uwtable
define dso_local i32 @main() local_unnamed_addr #0 {
  %1 = alloca [1000 x i8], align 16
  %2 = alloca [10 x i8], align 1
  %3 = getelementptr inbounds [1000 x i8], [1000 x i8]* %1, i64 0, i64 0
  call void @llvm.lifetime.start.p0i8(i64 1000, i8* nonnull %3) #7
  %4 = getelementptr inbounds [10 x i8], [10 x i8]* %2, i64 0, i64 0
  call void @llvm.lifetime.start.p0i8(i64 10, i8* nonnull %4) #7
  %5 = call i32 (i8*, ...) bitcast (i32 (...)* @gets to i32 (i8*, ...)*)(i8* nonnull %4) #7
  %6 = call i64 @strtol(i8* nocapture nonnull %4, i8** null, i32 10) #7
  %7 = trunc i64 %6 to i32
  %8 = icmp sgt i32 %7, 0
  br i1 %8, label %9, label %54

9:                                                ; preds = %0, %48
  %10 = phi i32 [ %50, %48 ], [ 1, %0 ]
  %11 = phi i32 [ %52, %48 ], [ 0, %0 ]
  %12 = call i32 (i8*, ...) bitcast (i32 (...)* @gets to i32 (i8*, ...)*)(i8* nonnull %3) #7
  %13 = call i64 @strlen(i8* noundef nonnull %3) #8
  %14 = trunc i64 %13 to i32
  %15 = load i8, i8* %3, align 16
  %16 = icmp sgt i32 %14, 0
  br i1 %16, label %17, label %44

17:                                               ; preds = %9
  %18 = icmp eq i8 %15, 95
  %19 = and i8 %15, -33
  %20 = add i8 %19, -65
  %21 = icmp ult i8 %20, 26
  %22 = or i1 %21, %18
  br i1 %22, label %23, label %48

23:                                               ; preds = %17
  %24 = and i64 %13, 4294967295
  br label %25

25:                                               ; preds = %23, %41
  %26 = phi i64 [ 0, %23 ], [ %42, %41 ]
  %27 = icmp eq i64 %26, 0
  br i1 %27, label %41, label %28

28:                                               ; preds = %25
  %29 = getelementptr inbounds [1000 x i8], [1000 x i8]* %1, i64 0, i64 %26
  %30 = load i8, i8* %29, align 1, !tbaa !5
  %31 = icmp eq i8 %30, 95
  %32 = and i8 %30, -33
  %33 = add i8 %32, -65
  %34 = icmp ult i8 %33, 26
  %35 = or i1 %34, %31
  br i1 %35, label %41, label %36

36:                                               ; preds = %28
  %37 = add i8 %30, -49
  %38 = icmp ult i8 %37, 9
  %39 = icmp eq i8 %30, 48
  %40 = or i1 %39, %38
  br i1 %40, label %41, label %48

41:                                               ; preds = %25, %36, %28
  %42 = add nuw nsw i64 %26, 1
  %43 = icmp eq i64 %42, %24
  br i1 %43, label %46, label %25, !llvm.loop !8

44:                                               ; preds = %9
  %45 = icmp eq i32 %10, 0
  br i1 %45, label %48, label %46

46:                                               ; preds = %41, %44
  %47 = phi i32 [ %10, %44 ], [ 1, %41 ]
  br label %48

48:                                               ; preds = %36, %44, %17, %46
  %49 = phi i8* [ getelementptr inbounds ([2 x i8], [2 x i8]* @str, i64 0, i64 0), %46 ], [ getelementptr inbounds ([2 x i8], [2 x i8]* @str.2, i64 0, i64 0), %17 ], [ getelementptr inbounds ([2 x i8], [2 x i8]* @str.2, i64 0, i64 0), %44 ], [ getelementptr inbounds ([2 x i8], [2 x i8]* @str.2, i64 0, i64 0), %36 ]
  %50 = phi i32 [ %47, %46 ], [ 0, %17 ], [ 0, %44 ], [ 0, %36 ]
  %51 = call i32 @puts(i8* nonnull dereferenceable(1) %49)
  %52 = add nuw nsw i32 %11, 1
  %53 = icmp eq i32 %52, %7
  br i1 %53, label %54, label %9, !llvm.loop !10

54:                                               ; preds = %48, %0
  %55 = load %struct._IO_FILE*, %struct._IO_FILE** @stdin, align 8, !tbaa !11
  %56 = call i32 @getc(%struct._IO_FILE* %55) #7
  %57 = load %struct._IO_FILE*, %struct._IO_FILE** @stdin, align 8, !tbaa !11
  %58 = call i32 @getc(%struct._IO_FILE* %57) #7
  call void @llvm.lifetime.end.p0i8(i64 10, i8* nonnull %4) #7
  call void @llvm.lifetime.end.p0i8(i64 1000, i8* nonnull %3) #7
  ret i32 0
}

; Function Attrs: argmemonly mustprogress nofree nosync nounwind willreturn
declare void @llvm.lifetime.start.p0i8(i64 immarg, i8* nocapture) #1

declare i32 @gets(...) local_unnamed_addr #2

; Function Attrs: argmemonly mustprogress nofree nounwind readonly willreturn
declare i64 @strlen(i8* nocapture) local_unnamed_addr #3

; Function Attrs: argmemonly mustprogress nofree nosync nounwind willreturn
declare void @llvm.lifetime.end.p0i8(i64 immarg, i8* nocapture) #1

; Function Attrs: mustprogress nofree nounwind willreturn
declare i64 @strtol(i8* readonly, i8** nocapture, i32) local_unnamed_addr #4

; Function Attrs: nofree nounwind
declare noundef i32 @getc(%struct._IO_FILE* nocapture noundef) local_unnamed_addr #5

; Function Attrs: nofree nounwind
declare noundef i32 @puts(i8* nocapture noundef readonly) local_unnamed_addr #6


!llvm.module.flags = !{!0, !1, !2, !3}
!llvm.ident = !{!4}

!0 = !{i32 1, !"wchar_size", i32 4}
!1 = !{i32 7, !"PIC Level", i32 2}
!2 = !{i32 7, !"PIE Level", i32 2}
!3 = !{i32 7, !"uwtable", i32 1}
!4 = !{!"clang version 13.0.0"}
!5 = !{!6, !6, i64 0}
!6 = !{!"omnipotent char", !7, i64 0}
!7 = !{!"Simple C/C++ TBAA"}
!8 = distinct !{!8, !9}
!9 = !{!"llvm.loop.mustprogress"}
!10 = distinct !{!10, !9}
!11 = !{!12, !12, i64 0}
!12 = !{!"any pointer", !6, i64 0}
